; ModuleID = '4/2059.c'
source_filename = "4/2059.c"
target datalayout = "e-m:e-p270:32:32-p271:32:32-p272:64:64-i64:64-f80:128-n8:16:32:64-S128"
target triple = "x86_64-pc-linux-gnu"

@.str = private unnamed_addr constant [5 x i8] c"%d%d\00", align 1
@.str.1 = private unnamed_addr constant [3 x i8] c"%d\00", align 1
@.str.2 = private unnamed_addr constant [4 x i8] c"%d\0A\00", align 1

; Function Attrs: noinline nounwind uwtable
define dso_local i32 @main() #0 {
  %1 = alloca i32, align 4
  %2 = alloca [100 x [100 x i32]], align 16
  %3 = alloca i32, align 4
  %4 = alloca i32, align 4
  %5 = alloca i32, align 4
  %6 = alloca i32, align 4
  %7 = alloca i32, align 4
  %8 = alloca i32, align 4
  %9 = alloca i32, align 4
  store i32 0, i32* %1, align 4
  %10 = call i32 (i8*, ...) @__isoc99_scanf(i8* getelementptr inbounds ([5 x i8], [5 x i8]* @.str, i64 0, i64 0), i32* %6, i32* %7)
  store i32 0, i32* %3, align 4
  br label %11

11:                                               ; preds = %32, %0
  %12 = load i32, i32* %3, align 4
  %13 = load i32, i32* %6, align 4
  %14 = icmp slt i32 %12, %13
  br i1 %14, label %15, label %35

15:                                               ; preds = %11
  store i32 0, i32* %4, align 4
  br label %16

16:                                               ; preds = %28, %15
  %17 = load i32, i32* %4, align 4
  %18 = load i32, i32* %7, align 4
  %19 = icmp slt i32 %17, %18
  br i1 %19, label %20, label %31

20:                                               ; preds = %16
  %21 = load i32, i32* %3, align 4
  %22 = sext i32 %21 to i64
  %23 = getelementptr inbounds [100 x [100 x i32]], [100 x [100 x i32]]* %2, i64 0, i64 %22
  %24 = load i32, i32* %4, align 4
  %25 = sext i32 %24 to i64
  %26 = getelementptr inbounds [100 x i32], [100 x i32]* %23, i64 0, i64 %25
  %27 = call i32 (i8*, ...) @__isoc99_scanf(i8* getelementptr inbounds ([3 x i8], [3 x i8]* @.str.1, i64 0, i64 0), i32* %26)
  br label %28

28:                                               ; preds = %20
  %29 = load i32, i32* %4, align 4
  %30 = add nsw i32 %29, 1
  store i32 %30, i32* %4, align 4
  br label %16

31:                                               ; preds = %16
  br label %32

32:                                               ; preds = %31
  %33 = load i32, i32* %3, align 4
  %34 = add nsw i32 %33, 1
  store i32 %34, i32* %3, align 4
  br label %11

35:                                               ; preds = %11
  %36 = getelementptr inbounds [100 x [100 x i32]], [100 x [100 x i32]]* %2, i64 0, i64 0
  %37 = getelementptr inbounds [100 x i32], [100 x i32]* %36, i64 0, i64 0
  %38 = load i32, i32* %37, align 16
  %39 = call i32 (i8*, ...) @printf(i8* getelementptr inbounds ([4 x i8], [4 x i8]* @.str.2, i64 0, i64 0), i32 %38)
  store i32 1, i32* %5, align 4
  br label %40

40:                                               ; preds = %78, %35
  %41 = load i32, i32* %5, align 4
  %42 = load i32, i32* %7, align 4
  %43 = icmp slt i32 %41, %42
  br i1 %43, label %44, label %81

44:                                               ; preds = %40
  %45 = load i32, i32* %5, align 4
  store i32 %45, i32* %4, align 4
  br label %46

46:                                               ; preds = %74, %44
  %47 = load i32, i32* %4, align 4
  %48 = icmp sge i32 %47, 0
  br i1 %48, label %49, label %77

49:                                               ; preds = %46
  %50 = load i32, i32* %5, align 4
  %51 = load i32, i32* %7, align 4
  %52 = sub nsw i32 %51, 1
  %53 = icmp sgt i32 %50, %52
  br i1 %53, label %54, label %55

54:                                               ; preds = %49
  br label %77

55:                                               ; preds = %49
  %56 = load i32, i32* %5, align 4
  %57 = load i32, i32* %4, align 4
  %58 = sub nsw i32 %56, %57
  %59 = load i32, i32* %6, align 4
  %60 = sub nsw i32 %59, 1
  %61 = icmp sgt i32 %58, %60
  br i1 %61, label %62, label %63

62:                                               ; preds = %55
  br label %77

63:                                               ; preds = %55
  %64 = load i32, i32* %5, align 4
  %65 = load i32, i32* %4, align 4
  %66 = sub nsw i32 %64, %65
  %67 = sext i32 %66 to i64
  %68 = getelementptr inbounds [100 x [100 x i32]], [100 x [100 x i32]]* %2, i64 0, i64 %67
  %69 = load i32, i32* %4, align 4
  %70 = sext i32 %69 to i64
  %71 = getelementptr inbounds [100 x i32], [100 x i32]* %68, i64 0, i64 %70
  %72 = load i32, i32* %71, align 4
  %73 = call i32 (i8*, ...) @printf(i8* getelementptr inbounds ([4 x i8], [4 x i8]* @.str.2, i64 0, i64 0), i32 %72)
  br label %74

74:                                               ; preds = %63
  %75 = load i32, i32* %4, align 4
  %76 = add nsw i32 %75, -1
  store i32 %76, i32* %4, align 4
  br label %46

77:                                               ; preds = %62, %54, %46
  br label %78

78:                                               ; preds = %77
  %79 = load i32, i32* %5, align 4
  %80 = add nsw i32 %79, 1
  store i32 %80, i32* %5, align 4
  br label %40

81:                                               ; preds = %40
  %82 = load i32, i32* %7, align 4
  store i32 %82, i32* %5, align 4
  br label %83

83:                                               ; preds = %119, %81
  %84 = load i32, i32* %5, align 4
  %85 = load i32, i32* %7, align 4
  %86 = load i32, i32* %6, align 4
  %87 = add nsw i32 %85, %86
  %88 = sub nsw i32 %87, 2
  %89 = icmp slt i32 %84, %88
  br i1 %89, label %90, label %122

90:                                               ; preds = %83
  %91 = load i32, i32* %7, align 4
  %92 = sub nsw i32 %91, 1
  store i32 %92, i32* %4, align 4
  br label %93

93:                                               ; preds = %115, %90
  %94 = load i32, i32* %4, align 4
  %95 = icmp sge i32 %94, 0
  br i1 %95, label %96, label %118

96:                                               ; preds = %93
  %97 = load i32, i32* %5, align 4
  %98 = load i32, i32* %4, align 4
  %99 = sub nsw i32 %97, %98
  %100 = load i32, i32* %6, align 4
  %101 = sub nsw i32 %100, 1
  %102 = icmp sgt i32 %99, %101
  br i1 %102, label %103, label %104

103:                                              ; preds = %96
  br label %118

104:                                              ; preds = %96
  %105 = load i32, i32* %5, align 4
  %106 = load i32, i32* %4, align 4
  %107 = sub nsw i32 %105, %106
  %108 = sext i32 %107 to i64
  %109 = getelementptr inbounds [100 x [100 x i32]], [100 x [100 x i32]]* %2, i64 0, i64 %108
  %110 = load i32, i32* %4, align 4
  %111 = sext i32 %110 to i64
  %112 = getelementptr inbounds [100 x i32], [100 x i32]* %109, i64 0, i64 %111
  %113 = load i32, i32* %112, align 4
  %114 = call i32 (i8*, ...) @printf(i8* getelementptr inbounds ([4 x i8], [4 x i8]* @.str.2, i64 0, i64 0), i32 %113)
  br label %115

115:                                              ; preds = %104
  %116 = load i32, i32* %4, align 4
  %117 = add nsw i32 %116, -1
  store i32 %117, i32* %4, align 4
  br label %93

118:                                              ; preds = %103, %93
  br label %119

119:                                              ; preds = %118
  %120 = load i32, i32* %5, align 4
  %121 = add nsw i32 %120, 1
  store i32 %121, i32* %5, align 4
  br label %83

122:                                              ; preds = %83
  %123 = load i32, i32* %6, align 4
  %124 = icmp eq i32 %123, 1
  br i1 %124, label %125, label %126

125:                                              ; preds = %122
  br label %137

126:                                              ; preds = %122
  %127 = load i32, i32* %6, align 4
  %128 = sub nsw i32 %127, 1
  %129 = sext i32 %128 to i64
  %130 = getelementptr inbounds [100 x [100 x i32]], [100 x [100 x i32]]* %2, i64 0, i64 %129
  %131 = load i32, i32* %7, align 4
  %132 = sub nsw i32 %131, 1
  %133 = sext i32 %132 to i64
  %134 = getelementptr inbounds [100 x i32], [100 x i32]* %130, i64 0, i64 %133
  %135 = load i32, i32* %134, align 4
  %136 = call i32 (i8*, ...) @printf(i8* getelementptr inbounds ([4 x i8], [4 x i8]* @.str.2, i64 0, i64 0), i32 %135)
  br label %137

137:                                              ; preds = %126, %125
  ret i32 0
}

declare dso_local i32 @__isoc99_scanf(i8*, ...) #1

declare dso_local i32 @printf(i8*, ...) #1


!llvm.module.flags = !{!0}
!llvm.ident = !{!1}

!0 = !{i32 1, !"wchar_size", i32 4}
!1 = !{!"clang version 10.0.0-4ubuntu1 "}
